; Function Attrs: mustprogress nounwind uwtable
define internal fastcc void @_ZN12_GLOBAL__N_111DeclPrinter21VisitTopLevelStmtDeclEPN5clang16TopLevelStmtDeclE(ptr noundef nonnull align 8 dereferenceable(37) %0, ptr nonnull %.72.val) unnamed_addr #0 align 2 {
  %2 = alloca %"class.llvm::StringRef", align 8
  %3 = load ptr, ptr %0, align 8
  %4 = getelementptr inbounds nuw i8, ptr %0, i64 8
  %5 = getelementptr inbounds nuw i8, ptr %0, i64 32
  %6 = load i32, ptr %5, align 8
  store ptr @.str.4, ptr %2, align 8
  %7 = getelementptr inbounds nuw i8, ptr %2, i64 8
  store i64 1, ptr %7, align 8
  %8 = getelementptr inbounds nuw i8, ptr %0, i64 24
  %9 = load ptr, ptr %8, align 8
  tail call void @_ZNK5clang4Stmt11printPrettyERN4llvm11raw_ostreamEPNS_13PrinterHelperERKNS_14PrintingPolicyEjNS1_9StringRefEPKNS_10ASTContextE(ptr noundef nonnull align 8 dereferenceable(8) %.72.val, ptr noundef nonnull align 8 dereferenceable(48) %3, ptr noundef null, ptr noundef nonnull align 8 dereferenceable(16) %4, i32 noundef %6, ptr noundef nonnull byval(%"class.llvm::StringRef") align 8 %2, ptr noundef %9) #14
  ret void
}